target datalayout = "e-m:e-p270:32:32-p271:32:32-p272:64:64-i64:64-i128:128-f80:128-n8:16:32:64-S128"
target triple = "x86_64-pc-linux-gnu"

%union.anon.0 = type { ptr }
%struct.AVFilterContext = type { ptr, ptr, ptr, ptr, ptr, i32, ptr, ptr, i32, ptr, ptr, i32, i32, ptr, ptr, ptr, ptr, i32, ptr, i32, i32 }
%struct.AVFilterLink = type { ptr, ptr, ptr, ptr, i32, i32, i32, i32, %struct.AVRational, i32, i32, i32, %struct.AVChannelLayout, %struct.AVRational, ptr, i32, %struct.AVFilterFormatsConfig, %struct.AVFilterFormatsConfig }
%struct.AVChannelLayout = type { i32, i32, %union.anon, ptr }
%union.anon = type { i64 }
%struct.AVFilterFormatsConfig = type { ptr, ptr, ptr, ptr, ptr }
%struct.AVRational = type { i32, i32 }
%struct.FFFilter = type { %struct.AVFilter, i8, i8, i8, ptr, ptr, ptr, %union.anon.0, i32, i32, ptr, ptr }
%struct.AVFilter = type { ptr, ptr, ptr, ptr, ptr, i32 }

@.str = private unnamed_addr constant [30 x i8] c"Assertion %s failed at %s:%d\0A\00", align 1
@.str.1 = private unnamed_addr constant [44 x i8] c"fffilter(ctx->filter)->activate == activate\00", align 1
@.str.2 = private unnamed_addr constant [25 x i8] c"libavfilter/buffersink.c\00", align 1

; Function Attrs: inlinehint nounwind uwtable
define internal ptr @fffilter(ptr noundef %0) #1 {
  %2 = alloca ptr, align 8
  store ptr %0, ptr %2, align 8, !tbaa !62
  %3 = load ptr, ptr %2, align 8, !tbaa !62
  ret ptr %3
}

; Function Attrs: nounwind uwtable
define ptr @av_buffersink_get_side_data(ptr noundef %0, ptr noundef %1) #0 {
  %3 = alloca ptr, align 8
  %4 = alloca ptr, align 8
  store ptr %0, ptr %3, align 8, !tbaa !4
  store ptr %1, ptr %4, align 8, !tbaa !79
  br label %5

5:                                                ; preds = %2
  %6 = load ptr, ptr %3, align 8, !tbaa !4
  %7 = getelementptr inbounds nuw %struct.AVFilterContext, ptr %6, i32 0, i32 1
  %8 = load ptr, ptr %7, align 8, !tbaa !57
  %9 = call ptr @fffilter(ptr noundef %8)
  %10 = getelementptr inbounds nuw %struct.FFFilter, ptr %9, i32 0, i32 11
  %11 = load ptr, ptr %10, align 8, !tbaa !58
  %12 = icmp eq ptr %11, @activate
  br i1 %12, label %14, label %13

13:                                               ; preds = %5
  call void (ptr, i32, ptr, ...) @av_log(ptr noundef null, i32 noundef 0, ptr noundef @.str, ptr noundef @.str.1, ptr noundef @.str.2, i32 noundef 370)
  call void @abort() #10
  unreachable

14:                                               ; preds = %5
  br label %15

15:                                               ; preds = %14
  %16 = load ptr, ptr %3, align 8, !tbaa !4
  %17 = getelementptr inbounds nuw %struct.AVFilterContext, ptr %16, i32 0, i32 4
  %18 = load ptr, ptr %17, align 8, !tbaa !13
  %19 = getelementptr inbounds ptr, ptr %18, i64 0
  %20 = load ptr, ptr %19, align 8, !tbaa !25
  %21 = getelementptr inbounds nuw %struct.AVFilterLink, ptr %20, i32 0, i32 15
  %22 = load i32, ptr %21, align 8, !tbaa !80
  %23 = load ptr, ptr %4, align 8, !tbaa !79
  store i32 %22, ptr %23, align 4, !tbaa !11
  %24 = load ptr, ptr %3, align 8, !tbaa !4
  %25 = getelementptr inbounds nuw %struct.AVFilterContext, ptr %24, i32 0, i32 4
  %26 = load ptr, ptr %25, align 8, !tbaa !13
  %27 = getelementptr inbounds ptr, ptr %26, i64 0
  %28 = load ptr, ptr %27, align 8, !tbaa !25
  %29 = getelementptr inbounds nuw %struct.AVFilterLink, ptr %28, i32 0, i32 14
  %30 = load ptr, ptr %29, align 8, !tbaa !81
  ret ptr %30
}