; Function Attrs: nounwind uwtable
define ptr @av_buffersink_get_side_data(ptr noundef readonly captures(none) %0, ptr noundef writeonly captures(none) %1) local_unnamed_addr #0 {
  %3 = getelementptr inbounds nuw i8, ptr %0, i64 8
  %4 = load ptr, ptr %3, align 8, !tbaa !50
  %5 = getelementptr inbounds nuw i8, ptr %4, i64 104
  %6 = load ptr, ptr %5, align 8, !tbaa !51
  %7 = icmp eq ptr %6, @activate
  br i1 %7, label %9, label %8

8:                                                ; preds = %2
  tail call void (ptr, i32, ptr, ...) @av_log(ptr noundef null, i32 noundef 0, ptr noundef nonnull @.str, ptr noundef nonnull @.str.1, ptr noundef nonnull @.str.2, i32 noundef 370) #10
  tail call void @abort() #11
  unreachable

9:                                                ; preds = %2
  %10 = getelementptr inbounds nuw i8, ptr %0, i64 32
  %11 = load ptr, ptr %10, align 8, !tbaa !4
  %12 = load ptr, ptr %11, align 8, !tbaa !20
  %13 = getelementptr inbounds nuw i8, ptr %12, i64 112
  %14 = load i32, ptr %13, align 8, !tbaa !70
  store i32 %14, ptr %1, align 4, !tbaa !47
  %15 = getelementptr inbounds nuw i8, ptr %12, i64 104
  %16 = load ptr, ptr %15, align 8, !tbaa !71
  ret ptr %16
}